target datalayout = "e-m:e-p270:32:32-p271:32:32-p272:64:64-i64:64-i128:128-f80:128-n8:16:32:64-S128"
target triple = "x86_64-pc-linux-gnu"

%class.symbol = type { ptr }

; Function Attrs: mustprogress nounwind uwtable
define hidden noundef i32 @_ZNK6symbol12display_sizeEv(ptr noundef nonnull align 8 dereferenceable(8) %0) #4 align 2 {
  %2 = alloca i32, align 4
  %3 = alloca ptr, align 8
  %4 = alloca i32, align 4
  %5 = alloca i32, align 4
  store ptr %0, ptr %3, align 8, !tbaa !3
  %6 = load ptr, ptr %3, align 8
  %7 = getelementptr inbounds nuw %class.symbol, ptr %6, i32 0, i32 0
  %8 = load ptr, ptr %7, align 8, !tbaa !9
  %9 = ptrtoint ptr %8 to i64
  %10 = and i64 %9, 7
  %11 = icmp eq i64 %10, 0
  br i1 %11, label %12, label %17

12:                                               ; preds = %1
  %13 = getelementptr inbounds nuw %class.symbol, ptr %6, i32 0, i32 0
  %14 = load ptr, ptr %13, align 8, !tbaa !9
  %15 = call i64 @strlen(ptr noundef %14) #20
  %16 = trunc i64 %15 to i32
  store i32 %16, ptr %2, align 4
  br label %35

17:                                               ; preds = %1
  call void @llvm.lifetime.start.p0(i64 4, ptr %4) #3
  %18 = getelementptr inbounds nuw %class.symbol, ptr %6, i32 0, i32 0
  %19 = load ptr, ptr %18, align 8, !tbaa !9
  %20 = ptrtoint ptr %19 to i64
  %21 = lshr i64 %20, 3
  %22 = trunc i64 %21 to i32
  store i32 %22, ptr %4, align 4, !tbaa !14
  call void @llvm.lifetime.start.p0(i64 4, ptr %5) #3
  store i32 4, ptr %5, align 4, !tbaa !14
  %23 = load i32, ptr %4, align 4, !tbaa !14
  %24 = lshr i32 %23, 1
  store i32 %24, ptr %4, align 4, !tbaa !14
  br label %25

25:                                               ; preds = %28, %17
  %26 = load i32, ptr %4, align 4, !tbaa !14
  %27 = icmp ugt i32 %26, 0
  br i1 %27, label %28, label %33

28:                                               ; preds = %25
  %29 = load i32, ptr %5, align 4, !tbaa !14
  %30 = add i32 %29, 1
  store i32 %30, ptr %5, align 4, !tbaa !14
  %31 = load i32, ptr %4, align 4, !tbaa !14
  %32 = lshr i32 %31, 1
  store i32 %32, ptr %4, align 4, !tbaa !14
  br label %25, !llvm.loop !40

33:                                               ; preds = %25
  %34 = load i32, ptr %5, align 4, !tbaa !14
  store i32 %34, ptr %2, align 4
  call void @llvm.lifetime.end.p0(i64 4, ptr %5) #3
  call void @llvm.lifetime.end.p0(i64 4, ptr %4) #3
  br label %35

35:                                               ; preds = %33, %12
  %36 = load i32, ptr %2, align 4
  ret i32 %36
}