; Function Attrs: mustprogress nofree nounwind willreturn memory(read, inaccessiblemem: none) uwtable
define hidden noundef i32 @_ZNK6symbol12display_sizeEv(ptr noundef nonnull readonly align 8 captures(none) dereferenceable(8) %0) local_unnamed_addr #6 align 2 {
  %2 = load ptr, ptr %0, align 8, !tbaa !34
  %3 = ptrtoint ptr %2 to i64
  %4 = and i64 %3, 7
  %5 = icmp eq i64 %4, 0
  br i1 %5, label %6, label %9

6:                                                ; preds = %1
  %7 = tail call i64 @strlen(ptr noundef nonnull dereferenceable(1) %2) #20
  %8 = trunc i64 %7 to i32
  br label %.loopexit

9:                                                ; preds = %1
  %sum.shift = lshr i64 %3, 4
  %10 = trunc i64 %sum.shift to i32
  %11 = and i32 %10, 2147483647
  %.not8 = icmp eq i32 %11, 0
  br i1 %.not8, label %.loopexit, label %.lr.ph.preheader

.lr.ph.preheader:                                 ; preds = %9
  %12 = tail call range(i32 1, 33) i32 @llvm.ctlz.i32(i32 %11, i1 true)
  %13 = sub nuw nsw i32 36, %12
  br label %.loopexit

.loopexit:                                        ; preds = %.lr.ph.preheader, %9, %6
  %.07 = phi i32 [ %8, %6 ], [ 4, %9 ], [ %13, %.lr.ph.preheader ]
  ret i32 %.07
}